target datalayout = "e-m:e-p270:32:32-p271:32:32-p272:64:64-i64:64-i128:128-f80:128-n8:16:32:64-S128"
target triple = "x86_64-pc-linux-gnu"

%struct.atomic_zu_t = type { i64 }
%struct.atomic_b_t = type { i8 }
%struct.nstime_t = type { i64 }
%struct.pac_s = type { %struct.pai_s, %struct.ecache_s, %struct.ecache_s, %struct.ecache_s, ptr, ptr, ptr, %struct.exp_grow_s, %struct.malloc_mutex_s, %struct.san_bump_alloc_s, %struct.atomic_zu_t, %struct.decay_s, %struct.decay_s, ptr, ptr, %struct.atomic_zu_t }
%struct.pai_s = type { ptr, ptr, ptr, ptr, ptr, ptr, ptr }
%struct.ecache_s = type { %struct.malloc_mutex_s, %struct.eset_s, %struct.eset_s, i32, i32, i8 }
%struct.eset_s = type { [4 x i64], [200 x %struct.eset_bin_s], [200 x %struct.eset_bin_stats_s], %struct.edata_list_inactive_t, %struct.atomic_zu_t, i32 }
%struct.eset_bin_s = type { %struct.edata_heap_t, %struct.edata_cmp_summary_s }
%struct.edata_heap_t = type { %struct.ph_s }
%struct.ph_s = type { ptr, i64 }
%struct.edata_cmp_summary_s = type { i64, i64 }
%struct.eset_bin_stats_s = type { %struct.atomic_zu_t, %struct.atomic_zu_t }
%struct.edata_list_inactive_t = type { %struct.anon.1 }
%struct.anon.1 = type { ptr }
%struct.exp_grow_s = type { i32, i32 }
%struct.malloc_mutex_s = type { %union.anon }
%union.anon = type { %struct.anon }
%struct.anon = type { %struct.mutex_prof_data_t, %struct.atomic_b_t, %union.pthread_mutex_t }
%struct.mutex_prof_data_t = type { %struct.nstime_t, %struct.nstime_t, i64, i64, i32, %struct.atomic_u32_t, i64, ptr, i64 }
%struct.atomic_u32_t = type { i32 }
%union.pthread_mutex_t = type { %struct.__pthread_mutex_s }
%struct.__pthread_mutex_s = type { i32, i32, i32, i32, i32, i16, i16, %struct.__pthread_internal_list }
%struct.__pthread_internal_list = type { ptr, ptr }
%struct.san_bump_alloc_s = type { %struct.malloc_mutex_s, ptr }
%struct.decay_s = type { %struct.malloc_mutex_s, i8, %struct.atomic_zd_t, %struct.nstime_t, %struct.nstime_t, i64, %struct.nstime_t, i64, i64, [200 x i64], i64 }
%struct.atomic_zd_t = type { i64 }
%struct.edata_s = type { i64, ptr, %union.anon.4, ptr, i64, %union.anon.5, %union.anon.8 }
%union.anon.4 = type { i64 }
%union.anon.5 = type { %union.anon.7 }
%union.anon.7 = type { %struct.edata_heap_link_t }
%struct.edata_heap_link_t = type { %struct.phn_link_s }
%struct.phn_link_s = type { ptr, ptr, ptr }
%union.anon.8 = type { %struct.slab_data_s }
%struct.slab_data_s = type { [8 x i64] }
%struct.pac_stats_s = type { %struct.pac_decay_stats_s, %struct.pac_decay_stats_s, i64, %struct.atomic_zu_t, %struct.atomic_zu_t }
%struct.pac_decay_stats_s = type { %struct.locked_u64_s, %struct.locked_u64_s, %struct.locked_u64_s }
%struct.locked_u64_s = type { %struct.atomic_u64_t }
%struct.atomic_u64_t = type { i64 }

; Function Attrs: alwaysinline nounwind uwtable
define internal i32 @atomic_enum_to_builtin(i32 noundef %0) #1 {
  %2 = alloca i32, align 4
  %3 = alloca i32, align 4
  store i32 %0, ptr %3, align 4, !tbaa !12
  %4 = load i32, ptr %3, align 4, !tbaa !12
  switch i32 %4, label %10 [
    i32 0, label %5
    i32 1, label %6
    i32 2, label %7
    i32 3, label %8
    i32 4, label %9
  ]

5:                                                ; preds = %1
  store i32 0, ptr %2, align 4
  br label %12

6:                                                ; preds = %1
  store i32 2, ptr %2, align 4
  br label %12

7:                                                ; preds = %1
  store i32 3, ptr %2, align 4
  br label %12

8:                                                ; preds = %1
  store i32 4, ptr %2, align 4
  br label %12

9:                                                ; preds = %1
  store i32 5, ptr %2, align 4
  br label %12

10:                                               ; preds = %1
  br label %11

11:                                               ; preds = %10
  unreachable

12:                                               ; preds = %5, %6, %7, %8, %9
  %13 = load i32, ptr %2, align 4
  ret i32 %13
}

; Function Attrs: alwaysinline nounwind uwtable
define internal i64 @atomic_fetch_add_u64(ptr noundef %0, i64 noundef %1, i32 noundef %2) #1 {
  %4 = alloca ptr, align 8
  %5 = alloca i64, align 8
  %6 = alloca i32, align 4
  %7 = alloca i64, align 8
  %8 = alloca i64, align 8
  store ptr %0, ptr %4, align 8, !tbaa !9
  store i64 %1, ptr %5, align 8, !tbaa !10
  store i32 %2, ptr %6, align 4, !tbaa !12
  %9 = load ptr, ptr %4, align 8, !tbaa !9
  %10 = getelementptr inbounds nuw %struct.atomic_u64_t, ptr %9, i32 0, i32 0
  %11 = load i32, ptr %6, align 4, !tbaa !12
  %12 = call i32 @atomic_enum_to_builtin(i32 noundef %11)
  %13 = load i64, ptr %5, align 8, !tbaa !10
  store i64 %13, ptr %7, align 8, !tbaa !10
  switch i32 %12, label %14 [
    i32 1, label %17
    i32 2, label %17
    i32 3, label %20
    i32 4, label %23
    i32 5, label %26
  ]

14:                                               ; preds = %3
  %15 = load i64, ptr %7, align 8
  %16 = atomicrmw add ptr %10, i64 %15 monotonic, align 8
  store i64 %16, ptr %8, align 8
  br label %29

17:                                               ; preds = %3, %3
  %18 = load i64, ptr %7, align 8
  %19 = atomicrmw add ptr %10, i64 %18 acquire, align 8
  store i64 %19, ptr %8, align 8
  br label %29

20:                                               ; preds = %3
  %21 = load i64, ptr %7, align 8
  %22 = atomicrmw add ptr %10, i64 %21 release, align 8
  store i64 %22, ptr %8, align 8
  br label %29

23:                                               ; preds = %3
  %24 = load i64, ptr %7, align 8
  %25 = atomicrmw add ptr %10, i64 %24 acq_rel, align 8
  store i64 %25, ptr %8, align 8
  br label %29

26:                                               ; preds = %3
  %27 = load i64, ptr %7, align 8
  %28 = atomicrmw add ptr %10, i64 %27 seq_cst, align 8
  store i64 %28, ptr %8, align 8
  br label %29

29:                                               ; preds = %26, %23, %20, %17, %14
  %30 = load i64, ptr %8, align 8, !tbaa !10
  ret i64 %30
}

; Function Attrs: alwaysinline nounwind uwtable
define internal i64 @atomic_fetch_sub_zu(ptr noundef %0, i64 noundef %1, i32 noundef %2) #1 {
  %4 = alloca ptr, align 8
  %5 = alloca i64, align 8
  %6 = alloca i32, align 4
  %7 = alloca i64, align 8
  %8 = alloca i64, align 8
  store ptr %0, ptr %4, align 8, !tbaa !9
  store i64 %1, ptr %5, align 8, !tbaa !10
  store i32 %2, ptr %6, align 4, !tbaa !12
  %9 = load ptr, ptr %4, align 8, !tbaa !9
  %10 = getelementptr inbounds nuw %struct.atomic_zu_t, ptr %9, i32 0, i32 0
  %11 = load i32, ptr %6, align 4, !tbaa !12
  %12 = call i32 @atomic_enum_to_builtin(i32 noundef %11)
  %13 = load i64, ptr %5, align 8, !tbaa !10
  store i64 %13, ptr %7, align 8, !tbaa !10
  switch i32 %12, label %14 [
    i32 1, label %17
    i32 2, label %17
    i32 3, label %20
    i32 4, label %23
    i32 5, label %26
  ]

14:                                               ; preds = %3
  %15 = load i64, ptr %7, align 8
  %16 = atomicrmw sub ptr %10, i64 %15 monotonic, align 8
  store i64 %16, ptr %8, align 8
  br label %29

17:                                               ; preds = %3, %3
  %18 = load i64, ptr %7, align 8
  %19 = atomicrmw sub ptr %10, i64 %18 acquire, align 8
  store i64 %19, ptr %8, align 8
  br label %29

20:                                               ; preds = %3
  %21 = load i64, ptr %7, align 8
  %22 = atomicrmw sub ptr %10, i64 %21 release, align 8
  store i64 %22, ptr %8, align 8
  br label %29

23:                                               ; preds = %3
  %24 = load i64, ptr %7, align 8
  %25 = atomicrmw sub ptr %10, i64 %24 acq_rel, align 8
  store i64 %25, ptr %8, align 8
  br label %29

26:                                               ; preds = %3
  %27 = load i64, ptr %7, align 8
  %28 = atomicrmw sub ptr %10, i64 %27 seq_cst, align 8
  store i64 %28, ptr %8, align 8
  br label %29

29:                                               ; preds = %26, %23, %20, %17, %14
  %30 = load i64, ptr %8, align 8, !tbaa !10
  ret i64 %30
}

; Function Attrs: inlinehint nounwind uwtable
define internal void @locked_inc_u64(ptr noundef %0, ptr noundef %1, ptr noundef %2, i64 noundef %3) #2 {
  %5 = alloca ptr, align 8
  %6 = alloca ptr, align 8
  %7 = alloca ptr, align 8
  %8 = alloca i64, align 8
  store ptr %0, ptr %5, align 8, !tbaa !14
  store ptr %1, ptr %6, align 8, !tbaa !60
  store ptr %2, ptr %7, align 8, !tbaa !94
  store i64 %3, ptr %8, align 8, !tbaa !10
  br label %9

9:                                                ; preds = %4
  br label %10

10:                                               ; preds = %9
  %11 = load ptr, ptr %7, align 8, !tbaa !94
  %12 = getelementptr inbounds nuw %struct.locked_u64_s, ptr %11, i32 0, i32 0
  %13 = load i64, ptr %8, align 8, !tbaa !10
  %14 = call i64 @atomic_fetch_add_u64(ptr noundef %12, i64 noundef %13, i32 noundef 0)
  ret void
}

; Function Attrs: inlinehint nounwind uwtable
define internal i64 @edata_size_get(ptr noundef %0) #2 {
  %2 = alloca ptr, align 8
  store ptr %0, ptr %2, align 8, !tbaa !20
  %3 = load ptr, ptr %2, align 8, !tbaa !20
  %4 = getelementptr inbounds nuw %struct.edata_s, ptr %3, i32 0, i32 2
  %5 = load i64, ptr %4, align 8, !tbaa !63
  %6 = and i64 %5, -4096
  ret i64 %6
}

; Function Attrs: nounwind uwtable
define internal void @extent_maximally_purge(ptr noundef %0, ptr noundef %1, ptr noundef %2, ptr noundef %3) #0 {
  %5 = alloca ptr, align 8
  %6 = alloca ptr, align 8
  %7 = alloca ptr, align 8
  %8 = alloca ptr, align 8
  %9 = alloca i64, align 8
  store ptr %0, ptr %5, align 8, !tbaa !14
  store ptr %1, ptr %6, align 8, !tbaa !4
  store ptr %2, ptr %7, align 8, !tbaa !16
  store ptr %3, ptr %8, align 8, !tbaa !20
  call void @llvm.lifetime.start.p0(i64 8, ptr %9) #10
  %10 = load ptr, ptr %8, align 8, !tbaa !20
  %11 = call i64 @edata_size_get(ptr noundef %10)
  store i64 %11, ptr %9, align 8, !tbaa !10
  %12 = load ptr, ptr %5, align 8, !tbaa !14
  %13 = load ptr, ptr %6, align 8, !tbaa !4
  %14 = load ptr, ptr %7, align 8, !tbaa !16
  %15 = load ptr, ptr %8, align 8, !tbaa !20
  call void @je_extent_dalloc_wrapper(ptr noundef %12, ptr noundef %13, ptr noundef %14, ptr noundef %15)
  %16 = load ptr, ptr %5, align 8, !tbaa !14
  %17 = load ptr, ptr %6, align 8, !tbaa !4
  %18 = getelementptr inbounds nuw %struct.pac_s, ptr %17, i32 0, i32 14
  %19 = load ptr, ptr %18, align 8, !tbaa !67
  %20 = getelementptr inbounds nuw %struct.pac_stats_s, ptr %19, i32 0, i32 0
  %21 = getelementptr inbounds nuw %struct.pac_decay_stats_s, ptr %20, i32 0, i32 1
  call void @locked_inc_u64(ptr noundef %16, ptr noundef null, ptr noundef %21, i64 noundef 1)
  %22 = load ptr, ptr %5, align 8, !tbaa !14
  %23 = load ptr, ptr %6, align 8, !tbaa !4
  %24 = getelementptr inbounds nuw %struct.pac_s, ptr %23, i32 0, i32 14
  %25 = load ptr, ptr %24, align 8, !tbaa !67
  %26 = getelementptr inbounds nuw %struct.pac_stats_s, ptr %25, i32 0, i32 0
  %27 = getelementptr inbounds nuw %struct.pac_decay_stats_s, ptr %26, i32 0, i32 2
  %28 = load i64, ptr %9, align 8, !tbaa !10
  %29 = lshr i64 %28, 12
  call void @locked_inc_u64(ptr noundef %22, ptr noundef null, ptr noundef %27, i64 noundef %29)
  %30 = load ptr, ptr %6, align 8, !tbaa !4
  %31 = getelementptr inbounds nuw %struct.pac_s, ptr %30, i32 0, i32 14
  %32 = load ptr, ptr %31, align 8, !tbaa !67
  %33 = getelementptr inbounds nuw %struct.pac_stats_s, ptr %32, i32 0, i32 3
  %34 = load i64, ptr %9, align 8, !tbaa !10
  %35 = call i64 @atomic_fetch_sub_zu(ptr noundef %33, i64 noundef %34, i32 noundef 0)
  call void @llvm.lifetime.end.p0(i64 8, ptr %9) #10
  ret void
}